; Function Attrs: nofree norecurse nosync nounwind memory(argmem: readwrite) uwtable
define void @vectors_subtraction(i32 noundef %0, ptr noundef readonly captures(none) %1, ptr noundef readonly captures(none) %2, ptr noundef writeonly captures(none) %3) local_unnamed_addr #3 {
  %5 = icmp sgt i32 %0, 0
  br i1 %5, label %.lr.ph.preheader, label %._crit_edge

.lr.ph.preheader:                                 ; preds = %4
  %wide.trip.count = zext nneg i32 %0 to i64
  br label %.lr.ph

.lr.ph:                                           ; preds = %.lr.ph.preheader, %.lr.ph
  %indvars.iv = phi i64 [ 0, %.lr.ph.preheader ], [ %indvars.iv.next, %.lr.ph ]
  %6 = getelementptr inbounds nuw double, ptr %1, i64 %indvars.iv
  %7 = load double, ptr %6, align 8, !tbaa !10
  %8 = getelementptr inbounds nuw double, ptr %2, i64 %indvars.iv
  %9 = load double, ptr %8, align 8, !tbaa !10
  %10 = fsub double %7, %9
  %11 = getelementptr inbounds nuw double, ptr %3, i64 %indvars.iv
  store double %10, ptr %11, align 8, !tbaa !10
  %indvars.iv.next = add nuw nsw i64 %indvars.iv, 1
  %exitcond.not = icmp eq i64 %indvars.iv.next, %wide.trip.count
  br i1 %exitcond.not, label %._crit_edge, label %.lr.ph, !llvm.loop !64

._crit_edge:                                      ; preds = %.lr.ph, %4
  ret void
}